; Function Attrs: inlinehint nounwind uwtable
define internal fastcc void @Bac_ManFree(ptr noundef captures(none) %0) unnamed_addr #4 {
  %2 = getelementptr i8, ptr %0, i64 36
  %.val34 = load i32, ptr %2, align 4, !tbaa !46
  %.not35 = icmp slt i32 %.val34, 1
  br i1 %.not35, label %.critedge, label %Bac_ManNtk.exit.lr.ph

Bac_ManNtk.exit.lr.ph:                            ; preds = %1
  %3 = getelementptr inbounds nuw i8, ptr %0, i64 40
  br label %Bac_ManNtk.exit

Bac_ManNtk.exit:                                  ; preds = %Bac_ManNtk.exit.lr.ph, %Bac_NtkFree.exit
  %indvars.iv = phi i64 [ 1, %Bac_ManNtk.exit.lr.ph ], [ %indvars.iv.next, %Bac_NtkFree.exit ]
  %4 = load ptr, ptr %3, align 8, !tbaa !47
  %5 = getelementptr inbounds nuw %struct.Bac_Ntk_t_, ptr %4, i64 %indvars.iv
  %6 = getelementptr inbounds nuw i8, ptr %5, i64 32
  %7 = getelementptr inbounds nuw i8, ptr %5, i64 40
  %8 = load ptr, ptr %7, align 8, !tbaa !80
  %.not.i.i = icmp eq ptr %8, null
  br i1 %.not.i.i, label %Vec_IntErase.exit.i, label %9

9:                                                ; preds = %Bac_ManNtk.exit
  tail call void @free(ptr noundef nonnull %8) #14
  store ptr null, ptr %7, align 8, !tbaa !80
  br label %Vec_IntErase.exit.i

Vec_IntErase.exit.i:                              ; preds = %9, %Bac_ManNtk.exit
  %10 = getelementptr inbounds nuw i8, ptr %5, i64 36
  store i32 0, ptr %10, align 4, !tbaa !48
  store i32 0, ptr %6, align 8, !tbaa !58
  %11 = getelementptr inbounds nuw i8, ptr %5, i64 48
  %12 = getelementptr inbounds nuw i8, ptr %5, i64 56
  %13 = load ptr, ptr %12, align 8, !tbaa !80
  %.not.i11.i = icmp eq ptr %13, null
  br i1 %.not.i11.i, label %Vec_IntErase.exit12.i, label %14

14:                                               ; preds = %Vec_IntErase.exit.i
  tail call void @free(ptr noundef nonnull %13) #14
  store ptr null, ptr %12, align 8, !tbaa !80
  br label %Vec_IntErase.exit12.i

Vec_IntErase.exit12.i:                            ; preds = %14, %Vec_IntErase.exit.i
  %15 = getelementptr inbounds nuw i8, ptr %5, i64 52
  store i32 0, ptr %15, align 4, !tbaa !48
  store i32 0, ptr %11, align 8, !tbaa !58
  %16 = getelementptr inbounds nuw i8, ptr %5, i64 64
  %17 = getelementptr inbounds nuw i8, ptr %5, i64 72
  %18 = load ptr, ptr %17, align 8, !tbaa !80
  %.not.i13.i = icmp eq ptr %18, null
  br i1 %.not.i13.i, label %Vec_IntErase.exit14.i, label %19

19:                                               ; preds = %Vec_IntErase.exit12.i
  tail call void @free(ptr noundef nonnull %18) #14
  store ptr null, ptr %17, align 8, !tbaa !80
  br label %Vec_IntErase.exit14.i

Vec_IntErase.exit14.i:                            ; preds = %19, %Vec_IntErase.exit12.i
  %20 = getelementptr inbounds nuw i8, ptr %5, i64 68
  store i32 0, ptr %20, align 4, !tbaa !48
  store i32 0, ptr %16, align 8, !tbaa !58
  %21 = getelementptr inbounds nuw i8, ptr %5, i64 80
  %22 = getelementptr inbounds nuw i8, ptr %5, i64 88
  %23 = load ptr, ptr %22, align 8, !tbaa !52
  %.not.i15.i = icmp eq ptr %23, null
  br i1 %.not.i15.i, label %Vec_StrErase.exit.i, label %24

24:                                               ; preds = %Vec_IntErase.exit14.i
  tail call void @free(ptr noundef nonnull %23) #14
  store ptr null, ptr %22, align 8, !tbaa !52
  br label %Vec_StrErase.exit.i

Vec_StrErase.exit.i:                              ; preds = %24, %Vec_IntErase.exit14.i
  %25 = getelementptr inbounds nuw i8, ptr %5, i64 84
  store i32 0, ptr %25, align 4, !tbaa !50
  store i32 0, ptr %21, align 8, !tbaa !59
  %26 = getelementptr inbounds nuw i8, ptr %5, i64 96
  %27 = getelementptr inbounds nuw i8, ptr %5, i64 104
  %28 = load ptr, ptr %27, align 8, !tbaa !80
  %.not.i16.i = icmp eq ptr %28, null
  br i1 %.not.i16.i, label %Vec_IntErase.exit17.i, label %29

29:                                               ; preds = %Vec_StrErase.exit.i
  tail call void @free(ptr noundef nonnull %28) #14
  store ptr null, ptr %27, align 8, !tbaa !80
  br label %Vec_IntErase.exit17.i

Vec_IntErase.exit17.i:                            ; preds = %29, %Vec_StrErase.exit.i
  %30 = getelementptr inbounds nuw i8, ptr %5, i64 100
  store i32 0, ptr %30, align 4, !tbaa !48
  store i32 0, ptr %26, align 8, !tbaa !58
  %31 = getelementptr inbounds nuw i8, ptr %5, i64 112
  %32 = getelementptr inbounds nuw i8, ptr %5, i64 120
  %33 = load ptr, ptr %32, align 8, !tbaa !80
  %.not.i18.i = icmp eq ptr %33, null
  br i1 %.not.i18.i, label %Vec_IntErase.exit19.i, label %34

34:                                               ; preds = %Vec_IntErase.exit17.i
  tail call void @free(ptr noundef nonnull %33) #14
  store ptr null, ptr %32, align 8, !tbaa !80
  br label %Vec_IntErase.exit19.i

Vec_IntErase.exit19.i:                            ; preds = %34, %Vec_IntErase.exit17.i
  %35 = getelementptr inbounds nuw i8, ptr %5, i64 116
  store i32 0, ptr %35, align 4, !tbaa !48
  store i32 0, ptr %31, align 8, !tbaa !58
  %36 = getelementptr inbounds nuw i8, ptr %5, i64 128
  %37 = getelementptr inbounds nuw i8, ptr %5, i64 136
  %38 = load ptr, ptr %37, align 8, !tbaa !80
  %.not.i20.i = icmp eq ptr %38, null
  br i1 %.not.i20.i, label %Vec_IntErase.exit21.i, label %39

39:                                               ; preds = %Vec_IntErase.exit19.i
  tail call void @free(ptr noundef nonnull %38) #14
  store ptr null, ptr %37, align 8, !tbaa !80
  br label %Vec_IntErase.exit21.i

Vec_IntErase.exit21.i:                            ; preds = %39, %Vec_IntErase.exit19.i
  %40 = getelementptr inbounds nuw i8, ptr %5, i64 132
  store i32 0, ptr %40, align 4, !tbaa !48
  store i32 0, ptr %36, align 8, !tbaa !58
  %41 = getelementptr inbounds nuw i8, ptr %5, i64 144
  %42 = getelementptr inbounds nuw i8, ptr %5, i64 152
  %43 = load ptr, ptr %42, align 8, !tbaa !80
  %.not.i22.i = icmp eq ptr %43, null
  br i1 %.not.i22.i, label %Vec_IntErase.exit23.i, label %44

44:                                               ; preds = %Vec_IntErase.exit21.i
  tail call void @free(ptr noundef nonnull %43) #14
  store ptr null, ptr %42, align 8, !tbaa !80
  br label %Vec_IntErase.exit23.i

Vec_IntErase.exit23.i:                            ; preds = %44, %Vec_IntErase.exit21.i
  %45 = getelementptr inbounds nuw i8, ptr %5, i64 148
  store i32 0, ptr %45, align 4, !tbaa !48
  store i32 0, ptr %41, align 8, !tbaa !58
  %46 = getelementptr inbounds nuw i8, ptr %5, i64 160
  %47 = getelementptr inbounds nuw i8, ptr %5, i64 168
  %48 = load ptr, ptr %47, align 8, !tbaa !80
  %.not.i24.i = icmp eq ptr %48, null
  br i1 %.not.i24.i, label %Vec_IntErase.exit25.i, label %49

49:                                               ; preds = %Vec_IntErase.exit23.i
  tail call void @free(ptr noundef nonnull %48) #14
  store ptr null, ptr %47, align 8, !tbaa !80
  br label %Vec_IntErase.exit25.i

Vec_IntErase.exit25.i:                            ; preds = %49, %Vec_IntErase.exit23.i
  %50 = getelementptr inbounds nuw i8, ptr %5, i64 164
  store i32 0, ptr %50, align 4, !tbaa !48
  store i32 0, ptr %46, align 8, !tbaa !58
  %51 = getelementptr inbounds nuw i8, ptr %5, i64 176
  %52 = getelementptr inbounds nuw i8, ptr %5, i64 184
  %53 = load ptr, ptr %52, align 8, !tbaa !80
  %.not.i26.i = icmp eq ptr %53, null
  br i1 %.not.i26.i, label %Vec_IntErase.exit27.i, label %54

54:                                               ; preds = %Vec_IntErase.exit25.i
  tail call void @free(ptr noundef nonnull %53) #14
  store ptr null, ptr %52, align 8, !tbaa !80
  br label %Vec_IntErase.exit27.i

Vec_IntErase.exit27.i:                            ; preds = %54, %Vec_IntErase.exit25.i
  %55 = getelementptr inbounds nuw i8, ptr %5, i64 180
  store i32 0, ptr %55, align 4, !tbaa !48
  store i32 0, ptr %51, align 8, !tbaa !58
  %56 = getelementptr inbounds nuw i8, ptr %5, i64 200
  %57 = load ptr, ptr %56, align 8, !tbaa !80
  %.not.i28.i = icmp eq ptr %57, null
  br i1 %.not.i28.i, label %Bac_NtkFree.exit, label %58

58:                                               ; preds = %Vec_IntErase.exit27.i
  tail call void @free(ptr noundef nonnull %57) #14
  store ptr null, ptr %56, align 8, !tbaa !80
  br label %Bac_NtkFree.exit

Bac_NtkFree.exit:                                 ; preds = %Vec_IntErase.exit27.i, %58
  %59 = getelementptr inbounds nuw i8, ptr %5, i64 192
  %60 = getelementptr inbounds nuw i8, ptr %5, i64 196
  store i32 0, ptr %60, align 4, !tbaa !48
  store i32 0, ptr %59, align 8, !tbaa !58
  %indvars.iv.next = add nuw nsw i64 %indvars.iv, 1
  %.val = load i32, ptr %2, align 4, !tbaa !46
  %61 = sext i32 %.val to i64
  %.not.not = icmp slt i64 %indvars.iv, %61
  br i1 %.not.not, label %Bac_ManNtk.exit, label %.critedge, !llvm.loop !81

.critedge:                                        ; preds = %Bac_NtkFree.exit, %1
  %62 = getelementptr inbounds nuw i8, ptr %0, i64 96
  %63 = getelementptr inbounds nuw i8, ptr %0, i64 104
  %64 = load ptr, ptr %63, align 8, !tbaa !80
  %.not.i = icmp eq ptr %64, null
  br i1 %.not.i, label %Vec_IntErase.exit, label %65

65:                                               ; preds = %.critedge
  tail call void @free(ptr noundef nonnull %64) #14
  store ptr null, ptr %63, align 8, !tbaa !80
  br label %Vec_IntErase.exit

Vec_IntErase.exit:                                ; preds = %.critedge, %65
  %66 = getelementptr inbounds nuw i8, ptr %0, i64 100
  store i32 0, ptr %66, align 4, !tbaa !48
  store i32 0, ptr %62, align 8, !tbaa !58
  %67 = getelementptr inbounds nuw i8, ptr %0, i64 112
  %68 = getelementptr inbounds nuw i8, ptr %0, i64 120
  %69 = load ptr, ptr %68, align 8, !tbaa !80
  %.not.i28 = icmp eq ptr %69, null
  br i1 %.not.i28, label %Vec_IntErase.exit29, label %70

70:                                               ; preds = %Vec_IntErase.exit
  tail call void @free(ptr noundef nonnull %69) #14
  store ptr null, ptr %68, align 8, !tbaa !80
  br label %Vec_IntErase.exit29

Vec_IntErase.exit29:                              ; preds = %Vec_IntErase.exit, %70
  %71 = getelementptr inbounds nuw i8, ptr %0, i64 116
  store i32 0, ptr %71, align 4, !tbaa !48
  store i32 0, ptr %67, align 8, !tbaa !58
  %72 = getelementptr inbounds nuw i8, ptr %0, i64 64
  %73 = getelementptr inbounds nuw i8, ptr %0, i64 72
  %74 = load ptr, ptr %73, align 8, !tbaa !80
  %.not.i30 = icmp eq ptr %74, null
  br i1 %.not.i30, label %Vec_IntErase.exit31, label %75

75:                                               ; preds = %Vec_IntErase.exit29
  tail call void @free(ptr noundef nonnull %74) #14
  store ptr null, ptr %73, align 8, !tbaa !80
  br label %Vec_IntErase.exit31

Vec_IntErase.exit31:                              ; preds = %Vec_IntErase.exit29, %75
  %76 = getelementptr inbounds nuw i8, ptr %0, i64 68
  store i32 0, ptr %76, align 4, !tbaa !48
  store i32 0, ptr %72, align 8, !tbaa !58
  %77 = getelementptr inbounds nuw i8, ptr %0, i64 80
  %78 = getelementptr inbounds nuw i8, ptr %0, i64 88
  %79 = load ptr, ptr %78, align 8, !tbaa !80
  %.not.i32 = icmp eq ptr %79, null
  br i1 %.not.i32, label %Vec_IntErase.exit33, label %80

80:                                               ; preds = %Vec_IntErase.exit31
  tail call void @free(ptr noundef nonnull %79) #14
  store ptr null, ptr %78, align 8, !tbaa !80
  br label %Vec_IntErase.exit33

Vec_IntErase.exit33:                              ; preds = %Vec_IntErase.exit31, %80
  %81 = getelementptr inbounds nuw i8, ptr %0, i64 84
  store i32 0, ptr %81, align 4, !tbaa !48
  store i32 0, ptr %77, align 8, !tbaa !58
  %82 = getelementptr inbounds nuw i8, ptr %0, i64 16
  %83 = load ptr, ptr %82, align 8, !tbaa !57
  tail call void @Abc_NamDeref(ptr noundef %83) #14
  %84 = getelementptr inbounds nuw i8, ptr %0, i64 24
  %85 = load ptr, ptr %84, align 8, !tbaa !49
  tail call void @Abc_NamDeref(ptr noundef %85) #14
  %86 = load ptr, ptr %0, align 8, !tbaa !43
  %.not25 = icmp eq ptr %86, null
  br i1 %.not25, label %88, label %87

87:                                               ; preds = %Vec_IntErase.exit33
  tail call void @free(ptr noundef nonnull %86) #14
  store ptr null, ptr %0, align 8, !tbaa !43
  br label %88

88:                                               ; preds = %Vec_IntErase.exit33, %87
  %89 = getelementptr inbounds nuw i8, ptr %0, i64 8
  %90 = load ptr, ptr %89, align 8, !tbaa !27
  %.not26 = icmp eq ptr %90, null
  br i1 %.not26, label %92, label %91

91:                                               ; preds = %88
  tail call void @free(ptr noundef nonnull %90) #14
  store ptr null, ptr %89, align 8, !tbaa !27
  br label %92

92:                                               ; preds = %88, %91
  %93 = getelementptr inbounds nuw i8, ptr %0, i64 40
  %94 = load ptr, ptr %93, align 8, !tbaa !47
  %.not27 = icmp eq ptr %94, null
  br i1 %.not27, label %96, label %95

95:                                               ; preds = %92
  tail call void @free(ptr noundef nonnull %94) #14
  br label %96

96:                                               ; preds = %95, %92
  tail call void @free(ptr noundef nonnull %0) #14
  ret void
}